Certificate:
    Data:
        Version: 3 (0x2)
        Serial Number: 1 (0x1)
    Signature Algorithm: sha256WithRSAEncryption
        Issuer: C=IT, ST=CS, L=Arcavacata, O=Unical, OU=unical, CN=Unical CA/name=UnicalRSA/emailAddress=ssl-test@unical.it
        Validity
            Not Before: Apr 22 19:57:13 2017 GMT
            Not After : Apr 20 19:57:13 2027 GMT
        Subject: C=IT, ST=CS, L=Arcavacata, O=Unical, OU=unical, CN=idp.testunical.it/name=UnicalRSA/emailAddress=ssl-test@unical.it
        Subject Public Key Info:
            Public Key Algorithm: rsaEncryption
                Public-Key: (4096 bit)
                Modulus:
                    00:ec:f2:35:38:ee:fd:57:6e:1a:26:f7:7d:55:85:
                    ec:d1:45:2f:ef:a3:7a:07:a7:a3:2d:56:98:0f:67:
                    2c:ec:f7:12:4e:81:45:55:02:51:61:cd:ea:b4:93:
                    43:40:bb:4c:b6:9c:09:ab:9d:34:8d:00:44:6d:ea:
                    f1:aa:98:70:33:a9:13:45:5e:2b:4e:5c:4b:c3:bb:
                    81:63:e7:c9:3b:61:6e:c4:7c:5a:89:54:17:64:17:
                    14:94:0d:cc:8d:ae:7d:45:6d:98:5d:f3:da:53:76:
                    63:d7:80:18:80:84:cb:39:6f:6b:1d:c3:aa:78:42:
                    0d:12:40:97:1c:0a:bb:f2:b6:3c:77:f1:44:43:b5:
                    b5:31:9c:6c:6b:fd:94:01:27:8a:b7:f3:d1:0f:9d:
                    98:96:14:ca:ff:aa:71:de:39:d0:77:9d:8e:a6:6d:
                    72:a7:44:68:ea:a1:e3:09:7d:76:ba:47:98:66:a5:
                    11:de:95:1f:00:36:80:57:a4:de:54:50:8c:c2:12:
                    dd:af:50:af:df:57:08:a7:f5:b6:f0:64:dc:a6:ab:
                    e8:ee:f9:4d:02:14:13:7d:a9:87:4b:7c:dc:90:8e:
                    c2:76:76:00:26:f4:a9:ed:4b:6e:e1:39:12:92:8b:
                    52:7d:6d:cc:ac:c7:d1:bc:bb:f0:51:da:ae:17:ea:
                    ac:1d:8e:7a:50:49:39:11:7c:e8:cd:f5:ca:e5:0c:
                    1d:77:77:ea:bf:3d:29:9b:8d:d7:95:59:b6:94:32:
                    a0:27:f5:9d:d6:87:df:59:f7:89:29:9d:d9:08:93:
                    ec:00:bd:46:55:c2:57:5e:50:96:80:f0:1d:be:db:
                    9c:8d:62:44:50:85:b7:77:37:a0:97:11:1d:1a:76:
                    fb:c6:e0:70:7c:20:2c:b7:31:da:c2:3f:5a:20:79:
                    23:7c:41:d8:d2:a3:2b:fb:8f:b8:a5:f1:8a:ce:f9:
                    57:f7:cd:2d:88:e7:81:52:a9:4f:1c:56:6b:7e:03:
                    37:65:a9:d8:d4:4f:cf:98:8b:a4:76:ec:9f:8f:4d:
                    1f:38:d1:41:d0:33:49:43:e8:98:ab:a8:99:5a:3f:
                    83:2d:4d:a8:48:0b:5a:10:44:8f:b8:af:49:a4:16:
                    3c:27:4b:eb:29:7d:1c:db:0b:8a:19:8d:35:b3:2c:
                    43:f4:e0:66:36:75:6c:06:22:83:03:2b:0f:c2:fa:
                    09:83:12:98:a3:8a:da:6c:c2:a5:72:9e:dc:99:ea:
                    63:81:6c:d3:8f:13:e7:50:c3:d9:6c:37:ed:21:49:
                    00:6c:2d:fa:a4:55:c0:b3:f1:86:39:b8:3e:7d:a3:
                    8e:cb:0a:f6:a5:c1:6d:fc:0d:9d:2f:ab:87:c5:8f:
                    bf:af:c3
                Exponent: 65537 (0x10001)
        X509v3 extensions:
            X509v3 Basic Constraints: 
                CA:FALSE
            Netscape Comment: 
                Easy-RSA Generated Certificate
            X509v3 Subject Key Identifier: 
                85:DE:14:F2:9B:88:7E:BF:A4:32:57:EF:1F:06:03:4B:A7:E8:78:F5
            X509v3 Authority Key Identifier: 
                keyid:58:F6:5B:5E:AB:2D:99:6A:C5:9E:81:2B:B6:84:FE:D1:29:B9:7C:81
                DirName:/C=IT/ST=CS/L=Arcavacata/O=Unical/OU=unical/CN=Unical CA/name=UnicalRSA/emailAddress=ssl-test@unical.it
                serial:86:64:DD:05:38:DE:19:CA

            X509v3 Extended Key Usage: 
                TLS Web Client Authentication
            X509v3 Key Usage: 
                Digital Signature
            X509v3 Subject Alternative Name: 
                DNS:idp.testunical.it
    Signature Algorithm: sha256WithRSAEncryption
         91:ee:16:87:db:fa:1d:f7:02:86:55:f3:eb:3c:d0:c6:59:7b:
         22:f4:c3:74:dc:58:f3:ca:e2:57:55:f5:aa:8b:a2:d2:9d:e0:
         7e:2a:af:17:59:24:57:13:44:79:f2:97:f3:9c:36:48:73:ca:
         37:1c:c7:99:ec:39:3f:7f:e7:6f:06:12:78:b5:9b:e0:d6:d5:
         e4:2b:55:14:c1:02:c6:07:ed:76:8f:25:14:10:b2:bf:59:a0:
         b1:15:49:61:83:c4:a6:b5:48:6c:ea:43:bd:9a:a9:63:e4:28:
         88:62:7b:c7:7a:aa:2c:eb:9b:ee:92:7b:e8:a8:82:c5:d0:2c:
         82:3f:75:69:ed:0a:f3:8d:2e:a5:e5:1c:b0:d1:53:3b:e0:d9:
         7b:01:8e:b7:9b:34:62:4d:18:ec:85:51:90:2a:fb:83:00:cd:
         fb:5a:81:5b:df:dd:e2:76:3c:e6:e9:a3:b8:c8:19:95:45:14:
         29:8d:e7:c5:91:a5:8e:9f:aa:e2:95:95:b0:77:56:4c:93:ee:
         b3:fe:08:b0:2f:d9:0d:be:5e:f9:87:60:69:2d:7b:0c:b5:d4:
         af:d9:0e:14:3c:da:c8:e1:dc:41:65:d8:bd:5b:6a:12:76:46:
         32:01:0e:37:af:94:66:f8:27:98:b2:e8:8b:30:47:59:72:b5:
         6a:f9:16:c6:45:a8:6a:f9:3e:e4:ad:42:9f:05:82:89:31:b9:
         1d:80:1b:7a:e8:1b:33:6e:a7:08:60:59:84:ed:3c:3b:8f:dc:
         94:86:da:4d:3f:3c:a1:6c:48:e3:73:5e:40:01:69:1d:9c:7d:
         d0:18:d2:2d:ee:e8:98:5f:60:90:59:fa:64:59:16:57:20:b0:
         98:8c:b1:0d:d4:2f:d6:d9:e7:af:1b:c4:0d:b4:2e:0d:1b:91:
         71:93:1c:63:86:57:c1:2e:bb:e4:4e:25:cb:12:49:cd:17:b4:
         9c:75:5e:66:19:7c:45:49:a5:0a:55:1f:42:c1:3e:a7:65:20:
         6d:56:0f:b6:93:0e:f0:73:01:5a:58:c4:ec:72:09:89:ed:d7:
         3a:3a:2a:3c:74:c9:6e:dd:8c:c7:da:f4:05:1a:d6:3b:3c:5d:
         2a:bc:b8:5a:0c:d1:2f:b1:b5:b6:a9:b7:7f:7e:cd:01:f1:28:
         5b:92:56:09:88:46:9c:53:0e:99:0d:d6:58:f5:ec:4a:d2:ea:
         3b:08:78:0a:88:70:9c:27:75:6a:58:cc:eb:a3:c5:7a:a1:ab:
         ca:33:ab:87:2e:9d:77:55:f5:55:70:14:46:89:0d:21:ca:04:
         6d:26:56:96:1d:44:c6:8f:71:81:d7:f2:26:c3:04:67:d0:8d:
         8f:d9:fe:0e:4c:1c:65:e6
-----BEGIN CERTIFICATE-----
MIIHMDCCBRigAwIBAgIBATANBgkqhkiG9w0BAQsFADCBnDELMAkGA1UEBhMCSVQx
CzAJBgNVBAgTAkNTMRMwEQYDVQQHEwpBcmNhdmFjYXRhMQ8wDQYDVQQKEwZVbmlj
YWwxDzANBgNVBAsTBnVuaWNhbDESMBAGA1UEAxMJVW5pY2FsIENBMRIwEAYDVQQp
EwlVbmljYWxSU0ExITAfBgkqhkiG9w0BCQEWEnNzbC10ZXN0QHVuaWNhbC5pdDAe
Fw0xNzA0MjIxOTU3MTNaFw0yNzA0MjAxOTU3MTNaMIGkMQswCQYDVQQGEwJJVDEL
MAkGA1UECBMCQ1MxEzARBgNVBAcTCkFyY2F2YWNhdGExDzANBgNVBAoTBlVuaWNh
bDEPMA0GA1UECxMGdW5pY2FsMRowGAYDVQQDExFpZHAudGVzdHVuaWNhbC5pdDES
MBAGA1UEKRMJVW5pY2FsUlNBMSEwHwYJKoZIhvcNAQkBFhJzc2wtdGVzdEB1bmlj
YWwuaXQwggIiMA0GCSqGSIb3DQEBAQUAA4ICDwAwggIKAoICAQDs8jU47v1Xbhom
931VhezRRS/vo3oHp6MtVpgPZyzs9xJOgUVVAlFhzeq0k0NAu0y2nAmrnTSNAERt
6vGqmHAzqRNFXitOXEvDu4Fj58k7YW7EfFqJVBdkFxSUDcyNrn1FbZhd89pTdmPX
gBiAhMs5b2sdw6p4Qg0SQJccCrvytjx38URDtbUxnGxr/ZQBJ4q389EPnZiWFMr/
qnHeOdB3nY6mbXKnRGjqoeMJfXa6R5hmpRHelR8ANoBXpN5UUIzCEt2vUK/fVwin
9bbwZNymq+ju+U0CFBN9qYdLfNyQjsJ2dgAm9KntS27hORKSi1J9bcysx9G8u/BR
2q4X6qwdjnpQSTkRfOjN9crlDB13d+q/PSmbjdeVWbaUMqAn9Z3Wh99Z94kpndkI
k+wAvUZVwldeUJaA8B2+25yNYkRQhbd3N6CXER0advvG4HB8ICy3MdrCP1ogeSN8
QdjSoyv7j7il8YrO+Vf3zS2I54FSqU8cVmt+AzdlqdjUT8+Yi6R27J+PTR840UHQ
M0lD6JirqJlaP4MtTahIC1oQRI+4r0mkFjwnS+spfRzbC4oZjTWzLEP04GY2dWwG
IoMDKw/C+gmDEpijitpswqVyntyZ6mOBbNOPE+dQw9lsN+0hSQBsLfqkVcCz8YY5
uD59o47LCvalwW38DZ0vq4fFj7+vwwIDAQABo4IBcTCCAW0wCQYDVR0TBAIwADAt
BglghkgBhvhCAQ0EIBYeRWFzeS1SU0EgR2VuZXJhdGVkIENlcnRpZmljYXRlMB0G
A1UdDgQWBBSF3hTym4h+v6QyV+8fBgNLp+h49TCB0QYDVR0jBIHJMIHGgBRY9lte
qy2ZasWegSu2hP7RKbl8gaGBoqSBnzCBnDELMAkGA1UEBhMCSVQxCzAJBgNVBAgT
AkNTMRMwEQYDVQQHEwpBcmNhdmFjYXRhMQ8wDQYDVQQKEwZVbmljYWwxDzANBgNV
BAsTBnVuaWNhbDESMBAGA1UEAxMJVW5pY2FsIENBMRIwEAYDVQQpEwlVbmljYWxS
U0ExITAfBgkqhkiG9w0BCQEWEnNzbC10ZXN0QHVuaWNhbC5pdIIJAIZk3QU43hnK
MBMGA1UdJQQMMAoGCCsGAQUFBwMCMAsGA1UdDwQEAwIHgDAcBgNVHREEFTATghFp
ZHAudGVzdHVuaWNhbC5pdDANBgkqhkiG9w0BAQsFAAOCAgEAke4Wh9v6HfcChlXz
6zzQxll7IvTDdNxY88riV1X1qoui0p3gfiqvF1kkVxNEefKX85w2SHPKNxzHmew5
P3/nbwYSeLWb4NbV5CtVFMECxgftdo8lFBCyv1mgsRVJYYPEprVIbOpDvZqpY+Qo
iGJ7x3qqLOub7pJ76KiCxdAsgj91ae0K840upeUcsNFTO+DZewGOt5s0Yk0Y7IVR
kCr7gwDN+1qBW9/d4nY85umjuMgZlUUUKY3nxZGljp+q4pWVsHdWTJPus/4IsC/Z
Db5e+YdgaS17DLXUr9kOFDzayOHcQWXYvVtqEnZGMgEON6+UZvgnmLLoizBHWXK1
avkWxkWoavk+5K1CnwWCiTG5HYAbeugbM26nCGBZhO08O4/clIbaTT88oWxI43Ne
QAFpHZx90BjSLe7omF9gkFn6ZFkWVyCwmIyxDdQv1tnnrxvEDbQuDRuRcZMcY4ZX
wS675E4lyxJJzRe0nHVeZhl8RUmlClUfQsE+p2UgbVYPtpMO8HMBWljE7HIJie3X
OjoqPHTJbt2Mx9r0BRrWOzxdKry4WgzRL7G1tqm3f37NAfEoW5JWCYhGnFMOmQ3W
WPXsStLqOwh4CohwnCd1aljM66PFeqGryjOrhy6dd1X1VXAURokNIcoEbSZWlh1E
xo9xgdfyJsMEZ9CNj9n+DkwcZeY=
-----END CERTIFICATE-----
