Certificate:
    Data:
        Version: 3 (0x2)
        Serial Number: 2 (0x2)
    Signature Algorithm: sha256WithRSAEncryption
        Issuer: C=IT, ST=CS, L=Arcavacata, O=Unical, OU=unical, CN=Unical CA/name=UnicalRSA/emailAddress=ssl-test@unical.it
        Validity
            Not Before: Apr 22 19:57:23 2017 GMT
            Not After : Apr 20 19:57:23 2027 GMT
        Subject: C=IT, ST=CS, L=Arcavacata, O=Unical, OU=unical, CN=sp.testunical.it/name=UnicalRSA/emailAddress=ssl-test@unical.it
        Subject Public Key Info:
            Public Key Algorithm: rsaEncryption
                Public-Key: (4096 bit)
                Modulus:
                    00:d1:9e:9e:4c:57:d3:ad:2c:c7:95:f4:0f:13:b5:
                    4e:29:03:1b:bf:bd:46:84:47:01:58:27:29:3f:ef:
                    eb:b3:44:89:5c:7b:50:27:95:f5:c3:8f:9e:fc:32:
                    dd:1f:45:5c:7e:a4:c6:46:fe:31:ef:be:4d:c2:d9:
                    b3:40:5e:01:bb:f8:91:d9:30:44:4a:3f:de:54:06:
                    46:32:ce:b2:ae:27:2d:c1:86:64:86:e0:d1:01:45:
                    70:cf:48:1f:f3:f0:05:93:10:7c:5d:84:05:4b:37:
                    43:79:3a:e7:66:87:6e:cc:92:2d:d7:16:02:05:3c:
                    72:83:50:99:48:de:11:ee:b9:cd:7c:f9:86:c5:55:
                    00:11:39:8a:ec:90:a9:bb:0f:75:41:ee:c4:42:19:
                    59:cb:65:5a:56:91:eb:4e:ed:8e:57:84:41:b5:36:
                    5e:f9:a0:b2:5b:81:83:d4:e0:bd:17:80:71:f3:4b:
                    2a:44:02:1e:3a:ff:bc:49:da:8e:60:0c:3d:e9:06:
                    a7:5b:c7:a7:59:ae:bb:a1:7c:1e:bf:03:56:bd:ab:
                    a1:ad:c0:de:06:e1:80:cc:0d:4a:86:cf:dc:4f:c4:
                    ea:01:84:05:53:ee:27:e3:b9:f4:14:1e:3a:ff:d8:
                    16:c3:b6:04:b4:7a:24:3e:84:23:75:15:72:dc:4b:
                    43:e8:32:af:46:90:c1:60:43:2d:e1:33:5d:1e:32:
                    c1:83:05:21:cf:94:4d:5f:c2:8c:13:a3:d2:42:95:
                    db:94:1b:f7:a1:b8:d4:17:bc:74:f1:89:b6:be:0d:
                    3c:fd:79:50:90:16:07:7f:6b:5c:1b:96:fd:82:43:
                    0d:f2:cb:ef:cb:25:3a:f6:f8:27:70:39:1c:5e:a3:
                    bd:6b:a7:67:a4:21:8c:26:28:e6:47:ef:3d:33:97:
                    bc:52:94:b2:8a:a7:26:17:e1:71:4e:d6:40:f7:9a:
                    bc:99:46:38:7e:36:f0:42:cd:30:5a:d0:29:80:90:
                    a6:84:35:84:4b:e6:71:68:10:9e:ff:7c:d1:76:f6:
                    a7:80:96:19:9f:88:a8:fb:eb:02:e8:83:cb:36:1f:
                    0d:3d:04:30:1f:f9:52:37:44:a9:ba:15:39:66:11:
                    af:72:88:57:53:3b:4c:58:33:cf:c8:3d:40:ff:4e:
                    e0:4c:ce:94:59:6d:93:c1:f7:e6:2d:99:98:a5:ce:
                    27:1c:5c:bb:84:fa:1d:71:44:8b:ee:ca:6c:6b:4a:
                    e8:37:0b:a6:82:63:d9:b1:05:05:55:8a:41:91:e5:
                    69:26:38:7a:ad:b7:02:c4:f2:b6:11:71:5a:8d:64:
                    29:ac:1a:a7:02:30:75:a9:25:cc:69:0a:6d:c8:34:
                    89:ba:c9
                Exponent: 65537 (0x10001)
        X509v3 extensions:
            X509v3 Basic Constraints: 
                CA:FALSE
            Netscape Comment: 
                Easy-RSA Generated Certificate
            X509v3 Subject Key Identifier: 
                97:5D:97:CB:A3:0B:D6:FE:A6:9A:26:C2:89:F5:76:A3:4B:B2:68:A2
            X509v3 Authority Key Identifier: 
                keyid:58:F6:5B:5E:AB:2D:99:6A:C5:9E:81:2B:B6:84:FE:D1:29:B9:7C:81
                DirName:/C=IT/ST=CS/L=Arcavacata/O=Unical/OU=unical/CN=Unical CA/name=UnicalRSA/emailAddress=ssl-test@unical.it
                serial:86:64:DD:05:38:DE:19:CA

            X509v3 Extended Key Usage: 
                TLS Web Client Authentication
            X509v3 Key Usage: 
                Digital Signature
            X509v3 Subject Alternative Name: 
                DNS:sp.testunical.it
    Signature Algorithm: sha256WithRSAEncryption
         af:e3:26:b7:f1:69:28:67:83:22:97:f8:0c:cd:85:22:e9:49:
         fe:4c:8a:4e:68:91:3d:15:3a:5b:f0:8e:31:b9:29:5d:aa:77:
         4b:65:3d:c9:c4:59:68:93:9f:3f:d6:74:42:e8:c7:39:f2:40:
         c3:26:2c:26:2d:b7:39:cb:6c:47:ed:12:c2:0b:ba:60:fd:7a:
         83:13:15:09:0e:4d:0d:f7:fa:a1:1f:fe:4f:cb:dc:b4:75:26:
         58:e3:eb:5a:55:25:a0:c2:61:ad:57:18:d2:4a:6d:e1:2c:ec:
         22:2a:90:bb:c3:06:a3:ea:91:9b:cc:0b:aa:9d:38:4e:f5:5e:
         3a:0a:35:f6:a7:7b:01:dd:a1:f4:35:71:fb:72:a4:70:95:83:
         8d:e4:af:66:8f:35:48:af:4b:73:ed:0c:b8:50:d3:0c:4d:a6:
         52:fe:b2:82:cc:2a:47:5f:3b:0a:80:a8:cf:3a:3f:b8:63:c5:
         e2:9f:bd:e8:8a:d9:d3:28:5c:7c:f2:6a:91:49:47:f4:24:39:
         e7:e8:c1:86:a1:25:fa:01:96:51:47:d5:10:c7:ca:33:45:cc:
         71:fa:27:73:b6:ac:c8:be:a4:41:7c:9d:65:48:6a:4f:c9:4a:
         f6:a5:87:3e:e0:a3:d9:df:ae:70:52:3f:32:42:94:48:8f:fa:
         6b:b7:20:b7:57:ff:b2:7f:03:53:55:95:a2:3f:f4:f9:9b:ae:
         bb:db:93:5b:e7:2a:d1:4d:f9:71:dc:a9:fc:82:2c:2f:6f:e3:
         ce:4f:41:36:6f:0c:3d:52:1e:f2:c0:95:71:f5:97:6c:f7:36:
         c0:d7:c1:b5:77:69:10:49:89:57:62:be:f5:4b:73:62:1a:8c:
         fa:e3:84:da:86:63:e9:20:b2:4e:db:64:74:7e:b7:af:ed:23:
         21:67:80:ed:fa:6e:77:c8:7a:4f:3e:ae:ff:b8:dd:57:7a:72:
         2e:f6:76:dd:bc:9b:6a:69:2e:65:48:45:44:1e:f4:fa:f5:4f:
         25:7f:4e:33:ca:0b:57:86:d5:83:44:7c:48:7a:b7:6f:37:df:
         ef:4b:af:fc:72:51:ad:3f:44:9b:83:c1:87:83:89:f8:39:77:
         d5:43:eb:54:08:c3:1c:5f:ca:6c:f8:af:c3:25:00:0a:2f:54:
         5f:b7:18:31:6f:5e:7e:5a:d0:b8:4e:34:f4:4b:e6:87:ce:0f:
         7b:9e:9a:22:64:7e:1b:ee:5c:96:99:f3:40:9c:28:62:6b:37:
         f1:14:7b:64:fb:43:1d:48:89:d2:31:c2:25:c5:75:9b:94:bb:
         af:7c:f3:2f:e3:c7:af:96:62:aa:94:47:b2:8b:ba:24:32:b1:
         9a:e9:2b:6a:c4:19:53:24
-----BEGIN CERTIFICATE-----
MIIHLjCCBRagAwIBAgIBAjANBgkqhkiG9w0BAQsFADCBnDELMAkGA1UEBhMCSVQx
CzAJBgNVBAgTAkNTMRMwEQYDVQQHEwpBcmNhdmFjYXRhMQ8wDQYDVQQKEwZVbmlj
YWwxDzANBgNVBAsTBnVuaWNhbDESMBAGA1UEAxMJVW5pY2FsIENBMRIwEAYDVQQp
EwlVbmljYWxSU0ExITAfBgkqhkiG9w0BCQEWEnNzbC10ZXN0QHVuaWNhbC5pdDAe
Fw0xNzA0MjIxOTU3MjNaFw0yNzA0MjAxOTU3MjNaMIGjMQswCQYDVQQGEwJJVDEL
MAkGA1UECBMCQ1MxEzARBgNVBAcTCkFyY2F2YWNhdGExDzANBgNVBAoTBlVuaWNh
bDEPMA0GA1UECxMGdW5pY2FsMRkwFwYDVQQDExBzcC50ZXN0dW5pY2FsLml0MRIw
EAYDVQQpEwlVbmljYWxSU0ExITAfBgkqhkiG9w0BCQEWEnNzbC10ZXN0QHVuaWNh
bC5pdDCCAiIwDQYJKoZIhvcNAQEBBQADggIPADCCAgoCggIBANGenkxX060sx5X0
DxO1TikDG7+9RoRHAVgnKT/v67NEiVx7UCeV9cOPnvwy3R9FXH6kxkb+Me++TcLZ
s0BeAbv4kdkwREo/3lQGRjLOsq4nLcGGZIbg0QFFcM9IH/PwBZMQfF2EBUs3Q3k6
52aHbsySLdcWAgU8coNQmUjeEe65zXz5hsVVABE5iuyQqbsPdUHuxEIZWctlWlaR
607tjleEQbU2XvmgsluBg9TgvReAcfNLKkQCHjr/vEnajmAMPekGp1vHp1muu6F8
Hr8DVr2roa3A3gbhgMwNSobP3E/E6gGEBVPuJ+O59BQeOv/YFsO2BLR6JD6EI3UV
ctxLQ+gyr0aQwWBDLeEzXR4ywYMFIc+UTV/CjBOj0kKV25Qb96G41Be8dPGJtr4N
PP15UJAWB39rXBuW/YJDDfLL78slOvb4J3A5HF6jvWunZ6QhjCYo5kfvPTOXvFKU
soqnJhfhcU7WQPeavJlGOH428ELNMFrQKYCQpoQ1hEvmcWgQnv980Xb2p4CWGZ+I
qPvrAuiDyzYfDT0EMB/5UjdEqboVOWYRr3KIV1M7TFgzz8g9QP9O4EzOlFltk8H3
5i2ZmKXOJxxcu4T6HXFEi+7KbGtK6DcLpoJj2bEFBVWKQZHlaSY4eq23AsTythFx
Wo1kKawapwIwdaklzGkKbcg0ibrJAgMBAAGjggFwMIIBbDAJBgNVHRMEAjAAMC0G
CWCGSAGG+EIBDQQgFh5FYXN5LVJTQSBHZW5lcmF0ZWQgQ2VydGlmaWNhdGUwHQYD
VR0OBBYEFJddl8ujC9b+ppomwon1dqNLsmiiMIHRBgNVHSMEgckwgcaAFFj2W16r
LZlqxZ6BK7aE/tEpuXyBoYGipIGfMIGcMQswCQYDVQQGEwJJVDELMAkGA1UECBMC
Q1MxEzARBgNVBAcTCkFyY2F2YWNhdGExDzANBgNVBAoTBlVuaWNhbDEPMA0GA1UE
CxMGdW5pY2FsMRIwEAYDVQQDEwlVbmljYWwgQ0ExEjAQBgNVBCkTCVVuaWNhbFJT
QTEhMB8GCSqGSIb3DQEJARYSc3NsLXRlc3RAdW5pY2FsLml0ggkAhmTdBTjeGcow
EwYDVR0lBAwwCgYIKwYBBQUHAwIwCwYDVR0PBAQDAgeAMBsGA1UdEQQUMBKCEHNw
LnRlc3R1bmljYWwuaXQwDQYJKoZIhvcNAQELBQADggIBAK/jJrfxaShngyKX+AzN
hSLpSf5Mik5okT0VOlvwjjG5KV2qd0tlPcnEWWiTnz/WdELoxznyQMMmLCYttznL
bEftEsILumD9eoMTFQkOTQ33+qEf/k/L3LR1Jljj61pVJaDCYa1XGNJKbeEs7CIq
kLvDBqPqkZvMC6qdOE71XjoKNfanewHdofQ1cftypHCVg43kr2aPNUivS3PtDLhQ
0wxNplL+soLMKkdfOwqAqM86P7hjxeKfveiK2dMoXHzyapFJR/QkOefowYahJfoB
llFH1RDHyjNFzHH6J3O2rMi+pEF8nWVIak/JSvalhz7go9nfrnBSPzJClEiP+mu3
ILdX/7J/A1NVlaI/9Pmbrrvbk1vnKtFN+XHcqfyCLC9v485PQTZvDD1SHvLAlXH1
l2z3NsDXwbV3aRBJiVdivvVLc2IajPrjhNqGY+kgsk7bZHR+t6/tIyFngO36bnfI
ek8+rv+43Vd6ci72dt28m2ppLmVIRUQe9Pr1TyV/TjPKC1eG1YNEfEh6t2833+9L
r/xyUa0/RJuDwYeDifg5d9VD61QIwxxfymz4r8MlAAovVF+3GDFvXn5a0LhONPRL
5ofOD3uemiJkfhvuXJaZ80CcKGJrN/EUe2T7Qx1IidIxwiXFdZuUu6988y/jx6+W
YqqUR7KLuiQysZrpK2rEGVMk
-----END CERTIFICATE-----
