Certificate:
    Data:
        Version: 3 (0x2)
        Serial Number: 1 (0x1)
    Signature Algorithm: sha256WithRSAEncryption
        Issuer: C=IT, ST=CS, L=Arcavacata, O=Unical, OU=unical, CN=Unical CA/name=UnicalRSA/emailAddress=ssl-test@unical.it
        Validity
            Not Before: Apr 17 10:32:03 2017 GMT
            Not After : Apr 15 10:32:03 2027 GMT
        Subject: C=IT, ST=CS, L=Arcavacata, O=Unical, OU=unical, CN=idp.unical.it/name=UnicalRSA/emailAddress=ssl-test@unical.it
        Subject Public Key Info:
            Public Key Algorithm: rsaEncryption
                Public-Key: (4096 bit)
                Modulus:
                    00:c8:ac:a3:d8:68:cf:42:f4:23:d3:59:a2:08:54:
                    0b:a0:2e:87:70:d7:16:a6:8e:be:0f:b3:60:33:d2:
                    0b:4c:bd:c5:d9:c1:a2:8b:e4:3a:c0:a9:dc:d6:8f:
                    75:b5:a6:0d:58:1d:f6:2a:6b:e5:da:aa:36:b9:7b:
                    2c:52:c4:9f:37:33:d2:9d:8a:3d:83:5c:10:e6:1a:
                    8e:cb:78:9f:a7:30:ad:7b:42:43:4f:8d:96:e7:c5:
                    2e:91:77:c8:7a:c0:b3:64:50:cc:06:17:65:2d:f4:
                    4e:09:4c:11:9e:11:c2:2e:b6:97:6c:cd:50:eb:48:
                    68:ca:74:20:34:07:86:61:15:56:e5:49:1c:01:94:
                    92:a1:9e:d3:63:30:8a:ed:ef:72:e3:ea:b3:f3:e4:
                    f3:8c:72:33:6f:f7:84:78:67:3b:49:c9:5c:74:9a:
                    68:d9:50:bb:2e:ea:24:59:62:c6:09:5d:2a:19:a7:
                    1d:14:d8:cd:64:03:27:6d:09:1f:1d:08:97:e4:d8:
                    76:0f:c0:90:dd:5a:b2:0d:a8:75:85:58:48:bc:b6:
                    a8:4e:7c:06:55:b7:50:f6:6c:23:ea:33:c2:c1:2a:
                    51:ed:f7:93:26:20:d1:51:55:3c:98:4d:fb:e7:d0:
                    6e:b7:d6:48:6a:cb:e7:4f:cf:6d:44:43:6b:91:93:
                    9b:56:b3:2a:b6:07:44:9b:53:83:be:bf:9a:b7:2c:
                    f3:8b:bd:6f:48:40:03:d3:be:8a:93:1b:a4:ef:cb:
                    37:8b:d1:a7:7a:da:66:8e:3c:08:a8:21:b5:71:99:
                    79:6b:96:4a:a1:10:58:fd:27:cb:c1:52:c8:66:ef:
                    d6:23:b3:a6:19:e5:4f:75:92:15:9d:7e:98:48:29:
                    cd:7a:ef:05:58:f6:74:de:c1:17:89:f6:d8:29:0d:
                    47:b0:8f:71:2d:ac:7d:25:21:15:d8:c9:99:b8:83:
                    73:fc:48:bd:6a:13:8c:6c:5e:12:0c:63:93:6c:e0:
                    d3:dc:73:2e:eb:61:9c:e5:58:6b:90:1d:a1:bf:4f:
                    d5:4c:f8:9d:cd:7d:a6:b5:7c:7d:68:69:37:20:64:
                    99:65:30:60:38:30:84:98:72:52:41:93:89:1b:54:
                    e7:7f:d8:3c:bb:dd:21:87:8f:c2:03:18:d1:7d:45:
                    d8:d4:60:b2:0f:14:04:17:75:a2:3a:38:0f:40:1a:
                    84:e1:16:e7:56:b8:85:04:da:a7:d0:7a:4e:d0:82:
                    36:28:fe:c5:a6:8f:31:ed:6e:28:f9:b8:2e:02:c2:
                    0f:66:40:9a:62:8d:ba:11:02:f8:94:e7:de:61:ec:
                    c8:f9:b7:c4:36:55:e8:2b:73:11:b6:c2:85:83:ae:
                    11:bc:f1
                Exponent: 65537 (0x10001)
        X509v3 extensions:
            X509v3 Basic Constraints: 
                CA:FALSE
            Netscape Comment: 
                Easy-RSA Generated Certificate
            X509v3 Subject Key Identifier: 
                37:5F:32:45:6F:A5:5B:B1:F3:60:2A:DB:F5:5C:B5:82:46:99:89:C4
            X509v3 Authority Key Identifier: 
                keyid:B1:A6:64:47:02:5C:88:F5:9C:8A:A9:E0:C9:EE:7F:73:01:BB:E3:9C
                DirName:/C=IT/ST=CS/L=Arcavacata/O=Unical/OU=unical/CN=Unical CA/name=UnicalRSA/emailAddress=ssl-test@unical.it
                serial:83:2A:D1:37:CA:94:13:A3

            X509v3 Extended Key Usage: 
                TLS Web Client Authentication
            X509v3 Key Usage: 
                Digital Signature
            X509v3 Subject Alternative Name: 
                DNS:idp.unical.it
    Signature Algorithm: sha256WithRSAEncryption
         47:53:b6:15:71:96:97:ad:ec:96:62:36:0b:38:e3:3c:2b:e5:
         ea:c6:dc:3c:22:2a:6f:c3:bd:59:b2:b5:e3:8f:70:7c:00:37:
         f7:0e:a8:54:52:48:53:63:c2:57:25:01:af:a0:7b:0d:6a:85:
         45:f4:04:91:13:4c:82:fb:cf:76:2a:2c:9e:b2:9b:99:75:26:
         ec:8d:a9:c5:53:9f:08:c5:a9:f4:d7:3f:18:0e:5e:26:22:72:
         6c:ca:fa:43:05:6c:81:8d:d1:a8:c9:a1:68:af:34:20:3a:ee:
         52:90:b2:55:40:94:b5:62:ee:cd:d5:5f:1b:75:4c:84:0c:76:
         0a:15:9d:a2:55:af:4b:74:aa:de:17:4f:41:a5:8e:7f:f5:e6:
         df:24:97:f7:16:5e:5a:27:8d:75:c9:86:e3:65:37:34:bd:63:
         4f:3e:54:41:04:27:4c:e4:2a:96:cb:cc:6a:aa:56:80:45:54:
         40:e4:4d:4b:c7:d5:45:7c:29:f9:bb:33:c0:4e:ea:83:fb:d7:
         5b:3f:96:a1:93:47:a4:06:8f:1c:12:3d:37:5c:d6:36:79:6b:
         d7:0c:e8:1f:76:c9:f9:13:09:14:67:98:fd:30:a6:dc:f3:db:
         71:55:c2:f6:a0:b5:c0:b1:e5:76:ae:dc:96:4f:02:e0:4a:7a:
         bd:78:93:bd:8e:de:34:42:4c:7d:d4:b0:28:14:9d:b2:8c:81:
         9f:fe:0e:26:4f:48:73:32:c5:f9:85:b6:94:ce:6c:cd:24:f1:
         3f:90:d8:2b:66:fb:7b:74:1d:68:77:82:68:73:61:a7:53:67:
         d2:d0:47:81:8c:b5:4c:5d:34:31:43:68:18:8c:0f:1d:cf:c9:
         20:51:b4:fa:1d:6d:07:d5:e1:09:d7:25:fd:36:40:b9:30:c3:
         1a:3a:49:85:ea:2c:40:d9:c9:e4:7d:54:df:98:67:5e:17:36:
         12:f6:eb:5c:d8:2c:49:89:6c:c1:d6:29:76:0c:02:b7:aa:17:
         86:3c:7c:df:43:2a:91:4c:4d:44:9f:5a:4e:a8:61:1b:c3:f3:
         2b:8d:59:5a:a8:66:e8:e2:61:73:a4:85:b7:95:fd:fb:92:f5:
         ea:34:44:de:cf:7e:b5:20:05:3d:6e:41:8c:46:a4:08:79:04:
         fb:3a:dc:9e:92:11:9d:42:fb:0c:d2:59:19:fb:40:de:00:3f:
         28:53:e3:ea:e6:6a:08:dd:59:bd:d7:70:d0:ef:50:fe:d6:8c:
         8b:12:fc:62:26:38:76:ee:0a:b4:c2:ab:97:c3:03:a9:28:bc:
         1d:ff:c3:df:0f:1e:51:55:81:1c:60:76:30:54:39:36:04:23:
         5b:5f:59:50:23:1e:44:e2
-----BEGIN CERTIFICATE-----
MIIHKDCCBRCgAwIBAgIBATANBgkqhkiG9w0BAQsFADCBnDELMAkGA1UEBhMCSVQx
CzAJBgNVBAgTAkNTMRMwEQYDVQQHEwpBcmNhdmFjYXRhMQ8wDQYDVQQKEwZVbmlj
YWwxDzANBgNVBAsTBnVuaWNhbDESMBAGA1UEAxMJVW5pY2FsIENBMRIwEAYDVQQp
EwlVbmljYWxSU0ExITAfBgkqhkiG9w0BCQEWEnNzbC10ZXN0QHVuaWNhbC5pdDAe
Fw0xNzA0MTcxMDMyMDNaFw0yNzA0MTUxMDMyMDNaMIGgMQswCQYDVQQGEwJJVDEL
MAkGA1UECBMCQ1MxEzARBgNVBAcTCkFyY2F2YWNhdGExDzANBgNVBAoTBlVuaWNh
bDEPMA0GA1UECxMGdW5pY2FsMRYwFAYDVQQDEw1pZHAudW5pY2FsLml0MRIwEAYD
VQQpEwlVbmljYWxSU0ExITAfBgkqhkiG9w0BCQEWEnNzbC10ZXN0QHVuaWNhbC5p
dDCCAiIwDQYJKoZIhvcNAQEBBQADggIPADCCAgoCggIBAMiso9hoz0L0I9NZoghU
C6Auh3DXFqaOvg+zYDPSC0y9xdnBoovkOsCp3NaPdbWmDVgd9ipr5dqqNrl7LFLE
nzcz0p2KPYNcEOYajst4n6cwrXtCQ0+NlufFLpF3yHrAs2RQzAYXZS30TglMEZ4R
wi62l2zNUOtIaMp0IDQHhmEVVuVJHAGUkqGe02Mwiu3vcuPqs/Pk84xyM2/3hHhn
O0nJXHSaaNlQuy7qJFlixgldKhmnHRTYzWQDJ20JHx0Il+TYdg/AkN1asg2odYVY
SLy2qE58BlW3UPZsI+ozwsEqUe33kyYg0VFVPJhN++fQbrfWSGrL50/PbURDa5GT
m1azKrYHRJtTg76/mrcs84u9b0hAA9O+ipMbpO/LN4vRp3raZo48CKghtXGZeWuW
SqEQWP0ny8FSyGbv1iOzphnlT3WSFZ1+mEgpzXrvBVj2dN7BF4n22CkNR7CPcS2s
fSUhFdjJmbiDc/xIvWoTjGxeEgxjk2zg09xzLuthnOVYa5Adob9P1Uz4nc19prV8
fWhpNyBkmWUwYDgwhJhyUkGTiRtU53/YPLvdIYePwgMY0X1F2NRgsg8UBBd1ojo4
D0AahOEW51a4hQTap9B6TtCCNij+xaaPMe1uKPm4LgLCD2ZAmmKNuhEC+JTn3mHs
yPm3xDZV6CtzEbbChYOuEbzxAgMBAAGjggFtMIIBaTAJBgNVHRMEAjAAMC0GCWCG
SAGG+EIBDQQgFh5FYXN5LVJTQSBHZW5lcmF0ZWQgQ2VydGlmaWNhdGUwHQYDVR0O
BBYEFDdfMkVvpVux82Aq2/VctYJGmYnEMIHRBgNVHSMEgckwgcaAFLGmZEcCXIj1
nIqp4Mnuf3MBu+OcoYGipIGfMIGcMQswCQYDVQQGEwJJVDELMAkGA1UECBMCQ1Mx
EzARBgNVBAcTCkFyY2F2YWNhdGExDzANBgNVBAoTBlVuaWNhbDEPMA0GA1UECxMG
dW5pY2FsMRIwEAYDVQQDEwlVbmljYWwgQ0ExEjAQBgNVBCkTCVVuaWNhbFJTQTEh
MB8GCSqGSIb3DQEJARYSc3NsLXRlc3RAdW5pY2FsLml0ggkAgyrRN8qUE6MwEwYD
VR0lBAwwCgYIKwYBBQUHAwIwCwYDVR0PBAQDAgeAMBgGA1UdEQQRMA+CDWlkcC51
bmljYWwuaXQwDQYJKoZIhvcNAQELBQADggIBAEdTthVxlpet7JZiNgs44zwr5erG
3DwiKm/DvVmyteOPcHwAN/cOqFRSSFNjwlclAa+gew1qhUX0BJETTIL7z3YqLJ6y
m5l1JuyNqcVTnwjFqfTXPxgOXiYicmzK+kMFbIGN0ajJoWivNCA67lKQslVAlLVi
7s3VXxt1TIQMdgoVnaJVr0t0qt4XT0Gljn/15t8kl/cWXlonjXXJhuNlNzS9Y08+
VEEEJ0zkKpbLzGqqVoBFVEDkTUvH1UV8Kfm7M8BO6oP711s/lqGTR6QGjxwSPTdc
1jZ5a9cM6B92yfkTCRRnmP0wptzz23FVwvagtcCx5Xau3JZPAuBKer14k72O3jRC
TH3UsCgUnbKMgZ/+DiZPSHMyxfmFtpTObM0k8T+Q2Ctm+3t0HWh3gmhzYadTZ9LQ
R4GMtUxdNDFDaBiMDx3PySBRtPodbQfV4QnXJf02QLkwwxo6SYXqLEDZyeR9VN+Y
Z14XNhL261zYLEmJbMHWKXYMAreqF4Y8fN9DKpFMTUSfWk6oYRvD8yuNWVqoZuji
YXOkhbeV/fuS9eo0RN7PfrUgBT1uQYxGpAh5BPs63J6SEZ1C+wzSWRn7QN4APyhT
4+rmagjdWb3XcNDvUP7WjIsS/GImOHbuCrTCq5fDA6kovB3/w98PHlFVgRxgdjBU
OTYEI1tfWVAjHkTi
-----END CERTIFICATE-----
