Certificate:
    Data:
        Version: 3 (0x2)
        Serial Number: 2 (0x2)
    Signature Algorithm: sha256WithRSAEncryption
        Issuer: C=IT, ST=CS, L=Arcavacata, O=Unical, OU=unical, CN=Unical CA/name=UnicalRSA/emailAddress=ssl-test@unical.it
        Validity
            Not Before: Apr 17 10:32:13 2017 GMT
            Not After : Apr 15 10:32:13 2027 GMT
        Subject: C=IT, ST=CS, L=Arcavacata, O=Unical, OU=unical, CN=sp.unical.it/name=UnicalRSA/emailAddress=ssl-test@unical.it
        Subject Public Key Info:
            Public Key Algorithm: rsaEncryption
                Public-Key: (4096 bit)
                Modulus:
                    00:d5:0d:5f:d2:83:10:69:bf:fc:5a:51:7a:97:a4:
                    16:a2:ee:1e:f1:d7:ae:2d:1b:17:0b:a3:e1:7c:33:
                    5e:73:86:d0:aa:7b:af:22:de:20:40:8a:07:e7:d5:
                    93:b2:1a:d9:79:7e:56:16:9e:c6:e9:9b:a7:b6:17:
                    58:b7:08:e0:6c:aa:84:a2:d5:55:a7:67:44:a6:bf:
                    7a:75:a1:6d:e1:aa:56:59:5e:8c:3a:47:f6:cf:c4:
                    7b:00:0b:7a:22:70:d6:5f:8a:fe:9c:0a:5f:2f:cd:
                    e0:60:f1:99:ef:90:7a:63:71:4d:48:a7:de:4d:73:
                    58:5c:d5:18:7b:fb:cb:15:37:de:04:41:a3:43:82:
                    72:a9:4c:8a:30:af:63:42:a0:08:a2:b4:1b:ef:99:
                    7d:e2:5d:ad:d0:df:95:ed:f3:1c:5c:db:fe:26:93:
                    c1:20:ae:c5:2f:1a:7b:d9:cc:ed:20:9a:b2:47:32:
                    3e:6d:da:2b:fb:a6:29:72:51:34:5e:31:72:df:03:
                    5a:73:71:27:91:74:75:68:ef:c9:7a:7e:5e:6d:f0:
                    96:15:33:2e:ee:18:0b:5d:f0:8e:16:23:70:18:62:
                    a7:53:52:f7:86:fd:70:7d:44:d9:83:12:56:17:0e:
                    a1:60:b1:28:52:64:93:f4:da:63:b0:f0:1c:ea:4d:
                    07:a6:fc:db:3a:f0:ac:a7:f7:b5:ac:0b:e6:98:4b:
                    5e:cb:5b:47:f9:21:87:cb:33:93:2d:64:6e:5f:43:
                    c8:64:1d:ce:dc:45:82:35:65:45:4f:64:d7:53:7f:
                    23:0d:27:49:f2:ee:27:77:5a:d7:93:85:d6:08:7f:
                    5e:09:a7:c8:e0:a7:57:f4:06:0b:fe:73:8f:a6:e6:
                    4d:e6:a5:21:77:e5:64:98:de:22:01:2e:7c:03:e5:
                    75:42:de:77:62:78:9a:0c:f4:91:6f:9f:37:90:49:
                    78:37:e2:ac:f8:64:63:09:94:33:32:93:c2:20:d6:
                    99:ea:9d:cf:32:a3:6c:dc:d3:72:fe:4d:8f:14:b2:
                    78:7f:96:c6:e5:6d:49:73:19:6e:a2:5d:81:85:fc:
                    5c:6c:5a:0b:78:2f:97:88:b8:f0:62:ed:e9:39:52:
                    41:20:75:6a:19:23:42:5f:62:37:48:ea:40:33:a7:
                    64:e5:a1:95:11:3f:33:5b:3b:0c:92:e3:89:34:a2:
                    ef:1d:bb:ff:7a:81:c9:1c:27:bd:8b:b9:fa:e5:fd:
                    80:aa:64:e8:0b:89:5c:01:d3:cd:c1:37:73:30:d5:
                    dc:4a:5c:a7:82:b7:04:ea:5e:72:49:91:c8:9a:e7:
                    7d:e2:3d:a4:66:c4:e2:76:04:89:33:b9:c6:a7:6b:
                    c4:d1:19
                Exponent: 65537 (0x10001)
        X509v3 extensions:
            X509v3 Basic Constraints: 
                CA:FALSE
            Netscape Comment: 
                Easy-RSA Generated Certificate
            X509v3 Subject Key Identifier: 
                EE:C0:73:C1:5C:EC:A0:8E:9E:0C:F9:3F:75:AA:44:A1:F1:D5:75:7D
            X509v3 Authority Key Identifier: 
                keyid:B1:A6:64:47:02:5C:88:F5:9C:8A:A9:E0:C9:EE:7F:73:01:BB:E3:9C
                DirName:/C=IT/ST=CS/L=Arcavacata/O=Unical/OU=unical/CN=Unical CA/name=UnicalRSA/emailAddress=ssl-test@unical.it
                serial:83:2A:D1:37:CA:94:13:A3

            X509v3 Extended Key Usage: 
                TLS Web Client Authentication
            X509v3 Key Usage: 
                Digital Signature
            X509v3 Subject Alternative Name: 
                DNS:sp.unical.it
    Signature Algorithm: sha256WithRSAEncryption
         04:90:db:a9:43:3d:18:07:95:4d:34:4a:a7:65:e6:22:1f:21:
         79:e9:d3:d0:bc:58:b2:d0:74:d7:03:f0:0e:7b:56:73:49:de:
         37:02:94:de:7e:22:26:30:06:52:87:6f:88:50:a5:b7:b8:1a:
         c9:98:92:b5:eb:88:2c:82:f4:e6:5e:54:5a:da:19:3a:07:3a:
         0b:45:48:ca:38:e3:4c:4d:6a:96:bd:07:25:3a:2a:8c:48:29:
         26:d5:fa:6b:0f:ec:a5:2a:ac:ce:db:79:db:7f:28:e3:2a:c0:
         c2:94:81:f7:a4:f7:f9:04:e7:4e:97:20:15:f1:37:65:da:30:
         a1:d1:05:cc:eb:d1:f1:da:a7:c1:4b:e1:ee:1d:a4:44:ae:e1:
         db:23:24:30:5c:fa:cd:ae:d9:bc:bb:f3:cc:fe:a7:26:5a:e6:
         ff:64:b0:ff:8a:ec:31:83:4f:30:62:40:4e:e6:fb:90:34:38:
         0d:52:d8:3b:86:ac:c6:83:16:c0:d8:98:86:4a:e4:82:86:8e:
         09:7a:dd:fd:07:dc:12:11:d0:bb:e2:77:e3:00:8c:76:ed:c9:
         79:cd:fd:18:20:87:7e:b6:2c:8b:70:5f:56:4f:59:e8:bc:ba:
         1b:18:0b:a6:11:e1:0b:7d:58:32:93:f3:b2:9d:aa:82:16:64:
         90:91:6d:3c:32:74:e6:75:79:a3:6d:4b:b8:38:90:ea:19:3f:
         16:db:ac:da:5e:4f:49:96:83:b5:b6:9a:3e:e2:a1:39:84:be:
         59:a8:87:1b:ef:bf:a8:69:29:51:2a:e9:95:07:c7:ff:8f:a5:
         c7:e5:eb:d1:4b:6a:7a:80:91:be:94:63:60:94:10:b2:61:db:
         ab:fe:e3:ac:a0:fc:6b:9b:2f:9b:1e:ac:1c:21:64:d1:c6:f3:
         28:90:db:d7:37:07:88:88:6f:15:4f:bc:ae:02:f3:3e:20:58:
         0f:0b:c6:75:1c:ee:f0:be:1c:bc:b5:be:57:53:de:76:1e:4f:
         3c:34:af:c6:85:5a:54:e5:11:d2:a1:11:a1:f6:09:66:a8:d8:
         bd:53:32:b1:55:b6:80:41:2c:d9:33:5b:8c:79:7c:6f:72:43:
         e1:2d:ff:89:79:f7:b4:6a:fe:c1:17:d7:81:57:c4:7b:9a:68:
         02:58:fd:59:a4:9f:bc:c0:65:60:dc:f4:5d:f9:7d:35:af:16:
         d0:64:81:44:75:41:8c:a1:59:99:b0:97:65:9d:46:cc:9b:60:
         83:ca:a1:44:f6:5d:73:b3:5f:4a:a8:6d:ed:1b:45:c8:be:de:
         f0:2f:16:53:a4:26:c2:10:de:78:be:10:63:22:f2:74:8d:10:
         30:61:1f:c3:74:25:2d:96
-----BEGIN CERTIFICATE-----
MIIHJjCCBQ6gAwIBAgIBAjANBgkqhkiG9w0BAQsFADCBnDELMAkGA1UEBhMCSVQx
CzAJBgNVBAgTAkNTMRMwEQYDVQQHEwpBcmNhdmFjYXRhMQ8wDQYDVQQKEwZVbmlj
YWwxDzANBgNVBAsTBnVuaWNhbDESMBAGA1UEAxMJVW5pY2FsIENBMRIwEAYDVQQp
EwlVbmljYWxSU0ExITAfBgkqhkiG9w0BCQEWEnNzbC10ZXN0QHVuaWNhbC5pdDAe
Fw0xNzA0MTcxMDMyMTNaFw0yNzA0MTUxMDMyMTNaMIGfMQswCQYDVQQGEwJJVDEL
MAkGA1UECBMCQ1MxEzARBgNVBAcTCkFyY2F2YWNhdGExDzANBgNVBAoTBlVuaWNh
bDEPMA0GA1UECxMGdW5pY2FsMRUwEwYDVQQDEwxzcC51bmljYWwuaXQxEjAQBgNV
BCkTCVVuaWNhbFJTQTEhMB8GCSqGSIb3DQEJARYSc3NsLXRlc3RAdW5pY2FsLml0
MIICIjANBgkqhkiG9w0BAQEFAAOCAg8AMIICCgKCAgEA1Q1f0oMQab/8WlF6l6QW
ou4e8deuLRsXC6PhfDNec4bQqnuvIt4gQIoH59WTshrZeX5WFp7G6ZunthdYtwjg
bKqEotVVp2dEpr96daFt4apWWV6MOkf2z8R7AAt6InDWX4r+nApfL83gYPGZ75B6
Y3FNSKfeTXNYXNUYe/vLFTfeBEGjQ4JyqUyKMK9jQqAIorQb75l94l2t0N+V7fMc
XNv+JpPBIK7FLxp72cztIJqyRzI+bdor+6YpclE0XjFy3wNac3EnkXR1aO/Jen5e
bfCWFTMu7hgLXfCOFiNwGGKnU1L3hv1wfUTZgxJWFw6hYLEoUmST9NpjsPAc6k0H
pvzbOvCsp/e1rAvmmEtey1tH+SGHyzOTLWRuX0PIZB3O3EWCNWVFT2TXU38jDSdJ
8u4nd1rXk4XWCH9eCafI4KdX9AYL/nOPpuZN5qUhd+VkmN4iAS58A+V1Qt53Ynia
DPSRb583kEl4N+Ks+GRjCZQzMpPCINaZ6p3PMqNs3NNy/k2PFLJ4f5bG5W1Jcxlu
ol2BhfxcbFoLeC+XiLjwYu3pOVJBIHVqGSNCX2I3SOpAM6dk5aGVET8zWzsMkuOJ
NKLvHbv/eoHJHCe9i7n65f2AqmToC4lcAdPNwTdzMNXcSlyngrcE6l5ySZHImud9
4j2kZsTidgSJM7nGp2vE0RkCAwEAAaOCAWwwggFoMAkGA1UdEwQCMAAwLQYJYIZI
AYb4QgENBCAWHkVhc3ktUlNBIEdlbmVyYXRlZCBDZXJ0aWZpY2F0ZTAdBgNVHQ4E
FgQU7sBzwVzsoI6eDPk/dapEofHVdX0wgdEGA1UdIwSByTCBxoAUsaZkRwJciPWc
iqngye5/cwG745yhgaKkgZ8wgZwxCzAJBgNVBAYTAklUMQswCQYDVQQIEwJDUzET
MBEGA1UEBxMKQXJjYXZhY2F0YTEPMA0GA1UEChMGVW5pY2FsMQ8wDQYDVQQLEwZ1
bmljYWwxEjAQBgNVBAMTCVVuaWNhbCBDQTESMBAGA1UEKRMJVW5pY2FsUlNBMSEw
HwYJKoZIhvcNAQkBFhJzc2wtdGVzdEB1bmljYWwuaXSCCQCDKtE3ypQTozATBgNV
HSUEDDAKBggrBgEFBQcDAjALBgNVHQ8EBAMCB4AwFwYDVR0RBBAwDoIMc3AudW5p
Y2FsLml0MA0GCSqGSIb3DQEBCwUAA4ICAQAEkNupQz0YB5VNNEqnZeYiHyF56dPQ
vFiy0HTXA/AOe1ZzSd43ApTefiImMAZSh2+IUKW3uBrJmJK164gsgvTmXlRa2hk6
BzoLRUjKOONMTWqWvQclOiqMSCkm1fprD+ylKqzO23nbfyjjKsDClIH3pPf5BOdO
lyAV8Tdl2jCh0QXM69Hx2qfBS+HuHaREruHbIyQwXPrNrtm8u/PM/qcmWub/ZLD/
iuwxg08wYkBO5vuQNDgNUtg7hqzGgxbA2JiGSuSCho4Jet39B9wSEdC74nfjAIx2
7cl5zf0YIId+tiyLcF9WT1novLobGAumEeELfVgyk/OynaqCFmSQkW08MnTmdXmj
bUu4OJDqGT8W26zaXk9JloO1tpo+4qE5hL5ZqIcb77+oaSlRKumVB8f/j6XH5evR
S2p6gJG+lGNglBCyYdur/uOsoPxrmy+bHqwcIWTRxvMokNvXNweIiG8VT7yuAvM+
IFgPC8Z1HO7wvhy8tb5XU952Hk88NK/GhVpU5RHSoRGh9glmqNi9UzKxVbaAQSzZ
M1uMeXxvckPhLf+Jefe0av7BF9eBV8R7mmgCWP1ZpJ+8wGVg3PRd+X01rxbQZIFE
dUGMoVmZsJdlnUbMm2CDyqFE9l1zs19KqG3tG0XIvt7wLxZTpCbCEN54vhBjIvJ0
jRAwYR/DdCUtlg==
-----END CERTIFICATE-----
